target datalayout = "e-m:e-p270:32:32-p271:32:32-p272:64:64-i64:64-i128:128-f80:128-n8:16:32:64-S128"
target triple = "x86_64-pc-linux-gnu"

%"class.spv::EnumDefinition" = type { %"class.spv::EnumParameters", i32, i8, ptr, ptr, ptr }
%"class.spv::EnumParameters" = type { ptr }
%"class.spv::SpirvStream" = type <{ ptr, ptr, ptr, i32, i32, i32, [4 x i8], %"class.std::vector", %"class.std::vector.0", i32, [4 x i8], %"class.std::stack", i32, [4 x i8] }>
%"class.std::vector" = type { %"struct.std::_Vector_base" }
%"struct.std::_Vector_base" = type { %"struct.std::_Vector_base<unsigned int, std::allocator<unsigned int>>::_Vector_impl" }
%"struct.std::_Vector_base<unsigned int, std::allocator<unsigned int>>::_Vector_impl" = type { %"struct.std::_Vector_base<unsigned int, std::allocator<unsigned int>>::_Vector_impl_data" }
%"struct.std::_Vector_base<unsigned int, std::allocator<unsigned int>>::_Vector_impl_data" = type { ptr, ptr, ptr }
%"class.std::vector.0" = type { %"struct.std::_Vector_base.1" }
%"struct.std::_Vector_base.1" = type { %"struct.std::_Vector_base<std::__cxx11::basic_string<char>, std::allocator<std::__cxx11::basic_string<char>>>::_Vector_impl" }
%"struct.std::_Vector_base<std::__cxx11::basic_string<char>, std::allocator<std::__cxx11::basic_string<char>>>::_Vector_impl" = type { %"struct.std::_Vector_base<std::__cxx11::basic_string<char>, std::allocator<std::__cxx11::basic_string<char>>>::_Vector_impl_data" }
%"struct.std::_Vector_base<std::__cxx11::basic_string<char>, std::allocator<std::__cxx11::basic_string<char>>>::_Vector_impl_data" = type { ptr, ptr, ptr }
%"class.std::stack" = type { %"class.std::deque" }
%"class.std::deque" = type { %"class.std::_Deque_base" }
%"class.std::_Deque_base" = type { %"struct.std::_Deque_base<unsigned int, std::allocator<unsigned int>>::_Deque_impl" }
%"struct.std::_Deque_base<unsigned int, std::allocator<unsigned int>>::_Deque_impl" = type { %"struct.std::_Deque_base<unsigned int, std::allocator<unsigned int>>::_Deque_impl_data" }
%"struct.std::_Deque_base<unsigned int, std::allocator<unsigned int>>::_Deque_impl_data" = type { ptr, i64, %"struct.std::_Deque_iterator", %"struct.std::_Deque_iterator" }
%"struct.std::_Deque_iterator" = type { ptr, ptr, ptr, ptr }

@.str.15 = private unnamed_addr constant [2 x i8] c" \00", align 1
@.str.16 = private unnamed_addr constant [5 x i8] c"None\00", align 1
@_ZN3spv18OperandClassParamsE = external global [0 x %"class.spv::EnumDefinition"], align 8

; Function Attrs: mustprogress nounwind uwtable
define void @_ZN3spv11SpirvStream10outputMaskENS_12OperandClassEj(ptr noundef nonnull align 8 dereferenceable(180) %0, i32 noundef %1, i32 noundef %2) #4 align 2 {
  %4 = alloca ptr, align 8
  %5 = alloca i32, align 4
  %6 = alloca i32, align 4
  %7 = alloca i32, align 4
  store ptr %0, ptr %4, align 8
  store i32 %1, ptr %5, align 4
  store i32 %2, ptr %6, align 4
  %8 = load ptr, ptr %4, align 8
  %9 = load i32, ptr %6, align 4
  %10 = icmp eq i32 %9, 0
  br i1 %10, label %11, label %15

11:                                               ; preds = %3
  %12 = getelementptr inbounds %"class.spv::SpirvStream", ptr %8, i32 0, i32 1
  %13 = load ptr, ptr %12, align 8
  %14 = call noundef nonnull align 8 dereferenceable(8) ptr @_ZStlsISt11char_traitsIcEERSt13basic_ostreamIcT_ES5_PKc(ptr noundef nonnull align 8 dereferenceable(8) %13, ptr noundef @.str.16)
  br label %47

15:                                               ; preds = %3
  store i32 0, ptr %7, align 4
  br label %16

16:                                               ; preds = %43, %15
  %17 = load i32, ptr %7, align 4
  %18 = load i32, ptr %5, align 4
  %19 = zext i32 %18 to i64
  %20 = getelementptr inbounds [0 x %"class.spv::EnumDefinition"], ptr @_ZN3spv18OperandClassParamsE, i64 0, i64 %19
  %21 = getelementptr inbounds %"class.spv::EnumDefinition", ptr %20, i32 0, i32 1
  %22 = load i32, ptr %21, align 8
  %23 = icmp slt i32 %17, %22
  br i1 %23, label %24, label %46

24:                                               ; preds = %16
  %25 = load i32, ptr %6, align 4
  %26 = load i32, ptr %7, align 4
  %27 = shl i32 1, %26
  %28 = and i32 %25, %27
  %29 = icmp ne i32 %28, 0
  br i1 %29, label %30, label %42

30:                                               ; preds = %24
  %31 = getelementptr inbounds %"class.spv::SpirvStream", ptr %8, i32 0, i32 1
  %32 = load ptr, ptr %31, align 8
  %33 = load i32, ptr %5, align 4
  %34 = zext i32 %33 to i64
  %35 = getelementptr inbounds [0 x %"class.spv::EnumDefinition"], ptr @_ZN3spv18OperandClassParamsE, i64 0, i64 %34
  %36 = getelementptr inbounds %"class.spv::EnumDefinition", ptr %35, i32 0, i32 3
  %37 = load ptr, ptr %36, align 8
  %38 = load i32, ptr %7, align 4
  %39 = call noundef ptr %37(i32 noundef %38)
  %40 = call noundef nonnull align 8 dereferenceable(8) ptr @_ZStlsISt11char_traitsIcEERSt13basic_ostreamIcT_ES5_PKc(ptr noundef nonnull align 8 dereferenceable(8) %32, ptr noundef %39)
  %41 = call noundef nonnull align 8 dereferenceable(8) ptr @_ZStlsISt11char_traitsIcEERSt13basic_ostreamIcT_ES5_PKc(ptr noundef nonnull align 8 dereferenceable(8) %40, ptr noundef @.str.15)
  br label %42

42:                                               ; preds = %30, %24
  br label %43

43:                                               ; preds = %42
  %44 = load i32, ptr %7, align 4
  %45 = add nsw i32 %44, 1
  store i32 %45, ptr %7, align 4
  br label %16, !llvm.loop !11

46:                                               ; preds = %16
  br label %47

47:                                               ; preds = %46, %11
  ret void
}