; Function Attrs: mustprogress nounwind uwtable
define void @_ZN3spv11SpirvStream10outputMaskENS_12OperandClassEj(ptr nocapture noundef nonnull readonly align 8 dereferenceable(180) %0, i32 noundef %1, i32 noundef %2) local_unnamed_addr #3 align 2 {
  %4 = icmp eq i32 %2, 0
  br i1 %4, label %12, label %.preheader

.preheader:                                       ; preds = %3
  %5 = zext i32 %1 to i64
  %6 = getelementptr inbounds [0 x %"class.spv::EnumDefinition"], ptr @_ZN3spv18OperandClassParamsE, i64 0, i64 %5
  %7 = getelementptr inbounds i8, ptr %6, i64 8
  %8 = load i32, ptr %7, align 8
  %9 = icmp sgt i32 %8, 0
  br i1 %9, label %.lr.ph, label %.loopexit

.lr.ph:                                           ; preds = %.preheader
  %10 = getelementptr inbounds i8, ptr %0, i64 8
  %11 = getelementptr inbounds i8, ptr %6, i64 16
  br label %16

12:                                               ; preds = %3
  %13 = getelementptr inbounds i8, ptr %0, i64 8
  %14 = load ptr, ptr %13, align 8
  %15 = tail call noundef nonnull align 8 dereferenceable(8) ptr @_ZStlsISt11char_traitsIcEERSt13basic_ostreamIcT_ES5_PKc(ptr noundef nonnull align 8 dereferenceable(8) %14, ptr noundef nonnull @.str.16) #18
  br label %.loopexit

16:                                               ; preds = %.lr.ph, %26
  %17 = phi i32 [ %8, %.lr.ph ], [ %27, %26 ]
  %.09 = phi i32 [ 0, %.lr.ph ], [ %28, %26 ]
  %18 = shl nuw i32 1, %.09
  %19 = and i32 %18, %2
  %.not = icmp eq i32 %19, 0
  br i1 %.not, label %26, label %20

20:                                               ; preds = %16
  %21 = load ptr, ptr %10, align 8
  %22 = load ptr, ptr %11, align 8
  %23 = tail call noundef ptr %22(i32 noundef %.09) #18
  %24 = tail call noundef nonnull align 8 dereferenceable(8) ptr @_ZStlsISt11char_traitsIcEERSt13basic_ostreamIcT_ES5_PKc(ptr noundef nonnull align 8 dereferenceable(8) %21, ptr noundef %23) #18
  %25 = tail call noundef nonnull align 8 dereferenceable(8) ptr @_ZStlsISt11char_traitsIcEERSt13basic_ostreamIcT_ES5_PKc(ptr noundef nonnull align 8 dereferenceable(8) %24, ptr noundef nonnull @.str.15) #18
  %.pre = load i32, ptr %7, align 8
  br label %26

26:                                               ; preds = %16, %20
  %27 = phi i32 [ %17, %16 ], [ %.pre, %20 ]
  %28 = add nuw nsw i32 %.09, 1
  %29 = icmp slt i32 %28, %27
  br i1 %29, label %16, label %.loopexit, !llvm.loop !23

.loopexit:                                        ; preds = %26, %.preheader, %12
  ret void
}